; ModuleID = '10/1122.c'
source_filename = "10/1122.c"
target datalayout = "e-m:e-p270:32:32-p271:32:32-p272:64:64-i64:64-f80:128-n8:16:32:64-S128"
target triple = "x86_64-pc-linux-gnu"

@D = common dso_local global [1000 x i32] zeroinitializer, align 16
@.str = private unnamed_addr constant [3 x i8] c"%d\00", align 1
@H = common dso_local global [1000 x i32] zeroinitializer, align 16

; Function Attrs: noinline nounwind uwtable
define dso_local i32 @main() #0 {
  %1 = alloca i32, align 4
  %2 = alloca i32, align 4
  %3 = alloca i32, align 4
  %4 = alloca i32, align 4
  %5 = alloca i32, align 4
  %6 = alloca i32, align 4
  store i32 0, i32* %1, align 4
  store i32 0, i32* %2, align 4
  br label %7

7:                                                ; preds = %14, %0
  %8 = load i32, i32* %2, align 4
  %9 = icmp slt i32 %8, 21
  br i1 %9, label %10, label %17

10:                                               ; preds = %7
  %11 = load i32, i32* %2, align 4
  %12 = sext i32 %11 to i64
  %13 = getelementptr inbounds [1000 x i32], [1000 x i32]* @D, i64 0, i64 %12
  store i32 0, i32* %13, align 4
  br label %14

14:                                               ; preds = %10
  %15 = load i32, i32* %2, align 4
  %16 = add nsw i32 %15, 1
  store i32 %16, i32* %2, align 4
  br label %7

17:                                               ; preds = %7
  store i32 0, i32* %2, align 4
  br label %18

18:                                               ; preds = %24, %17
  %19 = load i32, i32* %2, align 4
  %20 = sext i32 %19 to i64
  %21 = getelementptr inbounds [1000 x i32], [1000 x i32]* @H, i64 0, i64 %20
  %22 = call i32 (i8*, ...) @__isoc99_scanf(i8* getelementptr inbounds ([3 x i8], [3 x i8]* @.str, i64 0, i64 0), i32* %21)
  %23 = icmp ne i32 %22, -1
  br i1 %23, label %24, label %27

24:                                               ; preds = %18
  %25 = load i32, i32* %2, align 4
  %26 = add nsw i32 %25, 1
  store i32 %26, i32* %2, align 4
  br label %18

27:                                               ; preds = %18
  %28 = load i32, i32* %2, align 4
  %29 = sub nsw i32 %28, 1
  %30 = sext i32 %29 to i64
  %31 = getelementptr inbounds [1000 x i32], [1000 x i32]* @D, i64 0, i64 %30
  store i32 1, i32* %31, align 4
  %32 = load i32, i32* %2, align 4
  %33 = sub nsw i32 %32, 2
  store i32 %33, i32* %3, align 4
  br label %34

34:                                               ; preds = %75, %27
  %35 = load i32, i32* %3, align 4
  %36 = icmp sge i32 %35, 0
  br i1 %36, label %37, label %78

37:                                               ; preds = %34
  %38 = load i32, i32* %3, align 4
  %39 = add nsw i32 %38, 1
  store i32 %39, i32* %4, align 4
  store i32 0, i32* %5, align 4
  br label %40

40:                                               ; preds = %66, %37
  %41 = load i32, i32* %4, align 4
  %42 = load i32, i32* %2, align 4
  %43 = icmp slt i32 %41, %42
  br i1 %43, label %44, label %69

44:                                               ; preds = %40
  %45 = load i32, i32* %3, align 4
  %46 = sext i32 %45 to i64
  %47 = getelementptr inbounds [1000 x i32], [1000 x i32]* @H, i64 0, i64 %46
  %48 = load i32, i32* %47, align 4
  %49 = load i32, i32* %4, align 4
  %50 = sext i32 %49 to i64
  %51 = getelementptr inbounds [1000 x i32], [1000 x i32]* @H, i64 0, i64 %50
  %52 = load i32, i32* %51, align 4
  %53 = icmp sge i32 %48, %52
  br i1 %53, label %54, label %66

54:                                               ; preds = %44
  %55 = load i32, i32* %4, align 4
  %56 = sext i32 %55 to i64
  %57 = getelementptr inbounds [1000 x i32], [1000 x i32]* @D, i64 0, i64 %56
  %58 = load i32, i32* %57, align 4
  %59 = load i32, i32* %5, align 4
  %60 = icmp sgt i32 %58, %59
  br i1 %60, label %61, label %66

61:                                               ; preds = %54
  %62 = load i32, i32* %4, align 4
  %63 = sext i32 %62 to i64
  %64 = getelementptr inbounds [1000 x i32], [1000 x i32]* @D, i64 0, i64 %63
  %65 = load i32, i32* %64, align 4
  store i32 %65, i32* %5, align 4
  br label %66

66:                                               ; preds = %61, %54, %44
  %67 = load i32, i32* %4, align 4
  %68 = add nsw i32 %67, 1
  store i32 %68, i32* %4, align 4
  br label %40

69:                                               ; preds = %40
  %70 = load i32, i32* %5, align 4
  %71 = add nsw i32 %70, 1
  %72 = load i32, i32* %3, align 4
  %73 = sext i32 %72 to i64
  %74 = getelementptr inbounds [1000 x i32], [1000 x i32]* @D, i64 0, i64 %73
  store i32 %71, i32* %74, align 4
  br label %75

75:                                               ; preds = %69
  %76 = load i32, i32* %3, align 4
  %77 = add nsw i32 %76, -1
  store i32 %77, i32* %3, align 4
  br label %34

78:                                               ; preds = %34
  store i32 0, i32* %5, align 4
  store i32 0, i32* %3, align 4
  br label %79

79:                                               ; preds = %96, %78
  %80 = load i32, i32* %3, align 4
  %81 = load i32, i32* %2, align 4
  %82 = icmp slt i32 %80, %81
  br i1 %82, label %83, label %99

83:                                               ; preds = %79
  %84 = load i32, i32* %3, align 4
  %85 = sext i32 %84 to i64
  %86 = getelementptr inbounds [1000 x i32], [1000 x i32]* @D, i64 0, i64 %85
  %87 = load i32, i32* %86, align 4
  %88 = load i32, i32* %5, align 4
  %89 = icmp sgt i32 %87, %88
  br i1 %89, label %90, label %95

90:                                               ; preds = %83
  %91 = load i32, i32* %3, align 4
  %92 = sext i32 %91 to i64
  %93 = getelementptr inbounds [1000 x i32], [1000 x i32]* @D, i64 0, i64 %92
  %94 = load i32, i32* %93, align 4
  store i32 %94, i32* %5, align 4
  br label %95

95:                                               ; preds = %90, %83
  br label %96

96:                                               ; preds = %95
  %97 = load i32, i32* %3, align 4
  %98 = add nsw i32 %97, 1
  store i32 %98, i32* %3, align 4
  br label %79

99:                                               ; preds = %79
  %100 = load i32, i32* %5, align 4
  %101 = call i32 (i8*, ...) @printf(i8* getelementptr inbounds ([3 x i8], [3 x i8]* @.str, i64 0, i64 0), i32 %100)
  %102 = load i32, i32* %1, align 4
  ret i32 %102
}

declare dso_local i32 @__isoc99_scanf(i8*, ...) #1

declare dso_local i32 @printf(i8*, ...) #1


!llvm.module.flags = !{!0}
!llvm.ident = !{!1}

!0 = !{i32 1, !"wchar_size", i32 4}
!1 = !{!"clang version 10.0.0-4ubuntu1 "}
